target datalayout = "e-m:e-p270:32:32-p271:32:32-p272:64:64-i64:64-i128:128-f80:128-n8:16:32:64-S128"
target triple = "x86_64-unknown-linux-gnu"

%"struct.folly::unsafe_default_initialized_cv" = type { i8 }
%"class.proxygen::GenericFilter" = type { %"class.proxygen::HTTPCodec", %"class.proxygen::HTTPCodec::Callback", i8, i8, ptr, ptr, ptr, ptr, ptr, ptr }
%"class.proxygen::HTTPCodec" = type { ptr }
%"class.proxygen::HTTPCodec::Callback" = type { ptr }
%"class.folly::Optional.70" = type { %"struct.folly::Optional<unsigned long>::StorageTriviallyDestructible" }
%"struct.folly::Optional<unsigned long>::StorageTriviallyDestructible" = type <{ %union.anon.71, i8, [7 x i8] }>
%union.anon.71 = type { i64 }
%"class.folly::OptionalEmptyException" = type { %"class.std::runtime_error" }
%"class.std::runtime_error" = type { %"class.std::exception", %"struct.std::__cow_string" }
%"class.std::exception" = type { ptr }
%"struct.std::__cow_string" = type { %union.anon.78 }
%union.anon.78 = type { ptr }

@_ZN5folly26unsafe_default_initializedE = linkonce_odr constant %"struct.folly::unsafe_default_initialized_cv" undef, comdat, align 1
@_ZTIN5folly22OptionalEmptyExceptionE = linkonce_odr constant { ptr, ptr, ptr } { ptr getelementptr inbounds (ptr, ptr @_ZTVN10__cxxabiv120__si_class_type_infoE, i64 2), ptr @_ZTSN5folly22OptionalEmptyExceptionE, ptr @_ZTISt13runtime_error }, comdat, align 8
@_ZTVN5folly22OptionalEmptyExceptionE = linkonce_odr unnamed_addr constant { [5 x ptr] } { [5 x ptr] [ptr null, ptr @_ZTIN5folly22OptionalEmptyExceptionE, ptr @_ZN5folly22OptionalEmptyExceptionD2Ev, ptr @_ZN5folly22OptionalEmptyExceptionD0Ev, ptr @_ZNKSt13runtime_error4whatEv] }, comdat, align 8
@.str.2 = private unnamed_addr constant [35 x i8] c"Empty Optional cannot be unwrapped\00", align 1

; Function Attrs: mustprogress nounwind uwtable
define linkonce_odr void @_ZN5folly22OptionalEmptyExceptionC2EOS0_(ptr noundef nonnull align 8 dereferenceable(16) %this, ptr noundef nonnull align 8 dereferenceable(16) %0) unnamed_addr #5 comdat align 2 {
entry:
  %this.addr = alloca ptr, align 8
  %.addr = alloca ptr, align 8
  store ptr %this, ptr %this.addr, align 8
  store ptr %0, ptr %.addr, align 8
  %this1 = load ptr, ptr %this.addr, align 8
  %1 = load ptr, ptr %.addr, align 8
  call void @_ZNSt13runtime_errorC2EOS_(ptr noundef nonnull align 8 dereferenceable(16) %this1, ptr noundef nonnull align 8 dereferenceable(16) %1) #3
  store ptr getelementptr inbounds ({ [5 x ptr] }, ptr @_ZTVN5folly22OptionalEmptyExceptionE, i32 0, i32 0, i32 2), ptr %this1, align 8
  ret void
}

; Function Attrs: mustprogress nounwind uwtable
define linkonce_odr void @_ZN5folly22OptionalEmptyExceptionD2Ev(ptr noundef nonnull align 8 dereferenceable(16) %this) unnamed_addr #5 comdat align 2 {
entry:
  %this.addr = alloca ptr, align 8
  store ptr %this, ptr %this.addr, align 8
  %this1 = load ptr, ptr %this.addr, align 8
  call void @_ZNSt13runtime_errorD2Ev(ptr noundef nonnull align 8 dereferenceable(16) %this1) #3
  ret void
}

; Function Attrs: cold mustprogress noreturn uwtable
define linkonce_odr void @_ZN5folly15throw_exceptionINS_22OptionalEmptyExceptionEEEvOT_(ptr noundef nonnull align 8 dereferenceable(16) %ex) #13 comdat {
entry:
  %ex.addr = alloca ptr, align 8
  store ptr %ex, ptr %ex.addr, align 8
  %exception = call ptr @__cxa_allocate_exception(i64 16) #3
  %0 = load ptr, ptr %ex.addr, align 8
  call void @_ZN5folly22OptionalEmptyExceptionC2EOS0_(ptr noundef nonnull align 8 dereferenceable(16) %exception, ptr noundef nonnull align 8 dereferenceable(16) %0) #3
  call void @__cxa_throw(ptr %exception, ptr @_ZTIN5folly22OptionalEmptyExceptionE, ptr @_ZN5folly22OptionalEmptyExceptionD2Ev) #17
  unreachable
}

; Function Attrs: mustprogress uwtable
define linkonce_odr void @_ZN5folly22OptionalEmptyExceptionC2Ev(ptr noundef nonnull align 8 dereferenceable(16) %this) unnamed_addr #4 comdat align 2 {
entry:
  %this.addr = alloca ptr, align 8
  store ptr %this, ptr %this.addr, align 8
  %this1 = load ptr, ptr %this.addr, align 8
  call void @_ZNSt13runtime_errorC2EPKc(ptr noundef nonnull align 8 dereferenceable(16) %this1, ptr noundef @.str.2)
  store ptr getelementptr inbounds ({ [5 x ptr] }, ptr @_ZTVN5folly22OptionalEmptyExceptionE, i32 0, i32 0, i32 2), ptr %this1, align 8
  ret void
}

; Function Attrs: cold mustprogress noreturn uwtable
define linkonce_odr void @_ZN5folly6detail16throw_exception_INS_22OptionalEmptyExceptionEJEEEvDpT0_() #13 comdat personality ptr @__gxx_personality_v0 {
entry:
  %ref.tmp = alloca %"class.folly::OptionalEmptyException", align 8
  %exn.slot = alloca ptr, align 8
  %ehselector.slot = alloca i32, align 4
  call void @_ZN5folly22OptionalEmptyExceptionC2Ev(ptr noundef nonnull align 8 dereferenceable(16) %ref.tmp)
  invoke void @_ZN5folly15throw_exceptionINS_22OptionalEmptyExceptionEEEvOT_(ptr noundef nonnull align 8 dereferenceable(16) %ref.tmp) #16
          to label %invoke.cont unwind label %lpad

invoke.cont:                                      ; preds = %entry
  unreachable

lpad:                                             ; preds = %entry
  %0 = landingpad { ptr, i32 }
          cleanup
  %1 = extractvalue { ptr, i32 } %0, 0
  store ptr %1, ptr %exn.slot, align 8
  %2 = extractvalue { ptr, i32 } %0, 1
  store i32 %2, ptr %ehselector.slot, align 4
  call void @_ZN5folly22OptionalEmptyExceptionD2Ev(ptr noundef nonnull align 8 dereferenceable(16) %ref.tmp) #3
  br label %eh.resume

eh.resume:                                        ; preds = %lpad
  %exn = load ptr, ptr %exn.slot, align 8
  %sel = load i32, ptr %ehselector.slot, align 4
  %lpad.val = insertvalue { ptr, i32 } poison, ptr %exn, 0
  %lpad.val1 = insertvalue { ptr, i32 } %lpad.val, i32 %sel, 1
  resume { ptr, i32 } %lpad.val1
}

; Function Attrs: mustprogress uwtable
define linkonce_odr void @_ZNK5folly8OptionalImE13require_valueEv(ptr noundef nonnull align 8 dereferenceable(16) %this) #4 comdat align 2 {
entry:
  %this.addr = alloca ptr, align 8
  store ptr %this, ptr %this.addr, align 8
  %this1 = load ptr, ptr %this.addr, align 8
  %storage_ = getelementptr inbounds %"class.folly::Optional.70", ptr %this1, i32 0, i32 0
  %hasValue = getelementptr inbounds %"struct.folly::Optional<unsigned long>::StorageTriviallyDestructible", ptr %storage_, i32 0, i32 1
  %0 = load i8, ptr %hasValue, align 8
  %tobool = trunc i8 %0 to i1
  br i1 %tobool, label %if.end, label %if.then

if.then:                                          ; preds = %entry
  call void @_ZN5folly6detail16throw_exception_INS_22OptionalEmptyExceptionEJEEEvDpT0_() #16
  unreachable

_ZN5folly15throw_exceptionINS_22OptionalEmptyExceptionEJEEEvDpOT0_.exit: ; No predecessors!
  unreachable

if.end:                                           ; preds = %entry
  ret void
}

; Function Attrs: mustprogress nounwind uwtable
define linkonce_odr noundef zeroext i1 @_ZNK5folly8OptionalImE9has_valueEv(ptr noundef nonnull align 8 dereferenceable(16) %this) #5 comdat align 2 {
entry:
  %this.addr = alloca ptr, align 8
  store ptr %this, ptr %this.addr, align 8
  %this1 = load ptr, ptr %this.addr, align 8
  %storage_ = getelementptr inbounds %"class.folly::Optional.70", ptr %this1, i32 0, i32 0
  %hasValue = getelementptr inbounds %"struct.folly::Optional<unsigned long>::StorageTriviallyDestructible", ptr %storage_, i32 0, i32 1
  %0 = load i8, ptr %hasValue, align 8
  %tobool = trunc i8 %0 to i1
  ret i1 %tobool
}

; Function Attrs: noreturn nounwind uwtable
define linkonce_odr hidden void @__clang_call_terminate(ptr noundef %0) #9 comdat {
  %2 = call ptr @__cxa_begin_catch(ptr %0) #3
  call void @_ZSt9terminatev() #14
  unreachable
}

; Function Attrs: mustprogress nounwind uwtable
define linkonce_odr void @_ZN5folly8OptionalImE9constructIJRKmEEEvDpOT_(ptr noundef nonnull align 8 dereferenceable(16) %this, ptr noundef nonnull align 8 dereferenceable(8) %args) #5 comdat align 2 {
entry:
  %this.addr = alloca ptr, align 8
  %args.addr = alloca ptr, align 8
  %ptr = alloca ptr, align 8
  store ptr %this, ptr %this.addr, align 8
  store ptr %args, ptr %args.addr, align 8
  %this1 = load ptr, ptr %this.addr, align 8
  %storage_ = getelementptr inbounds %"class.folly::Optional.70", ptr %this1, i32 0, i32 0
  %0 = getelementptr inbounds %"struct.folly::Optional<unsigned long>::StorageTriviallyDestructible", ptr %storage_, i32 0, i32 0
  store ptr %0, ptr %ptr, align 8
  %1 = load ptr, ptr %ptr, align 8
  %2 = load ptr, ptr %args.addr, align 8
  %3 = load i64, ptr %2, align 8
  store i64 %3, ptr %1, align 8
  %storage_2 = getelementptr inbounds %"class.folly::Optional.70", ptr %this1, i32 0, i32 0
  %hasValue = getelementptr inbounds %"struct.folly::Optional<unsigned long>::StorageTriviallyDestructible", ptr %storage_2, i32 0, i32 1
  store i8 1, ptr %hasValue, align 8
  ret void
}

; Function Attrs: mustprogress uwtable
define linkonce_odr noundef nonnull align 8 dereferenceable(8) ptr @_ZNKR5folly8OptionalImE5valueEv(ptr noundef nonnull align 8 dereferenceable(16) %this) #4 comdat align 2 {
entry:
  %this.addr = alloca ptr, align 8
  store ptr %this, ptr %this.addr, align 8
  %this1 = load ptr, ptr %this.addr, align 8
  call void @_ZNK5folly8OptionalImE13require_valueEv(ptr noundef nonnull align 8 dereferenceable(16) %this1)
  %storage_ = getelementptr inbounds %"class.folly::Optional.70", ptr %this1, i32 0, i32 0
  %0 = getelementptr inbounds %"struct.folly::Optional<unsigned long>::StorageTriviallyDestructible", ptr %storage_, i32 0, i32 0
  ret ptr %0
}

; Function Attrs: mustprogress nounwind uwtable
define linkonce_odr noundef zeroext i1 @_ZNK5folly8OptionalImE8hasValueEv(ptr noundef nonnull align 8 dereferenceable(16) %this) #5 comdat align 2 {
entry:
  %this.addr = alloca ptr, align 8
  store ptr %this, ptr %this.addr, align 8
  %this1 = load ptr, ptr %this.addr, align 8
  %call = call noundef zeroext i1 @_ZNK5folly8OptionalImE9has_valueEv(ptr noundef nonnull align 8 dereferenceable(16) %this1) #3
  ret i1 %call
}

; Function Attrs: mustprogress nounwind uwtable
define linkonce_odr void @_ZN5folly8OptionalImE28StorageTriviallyDestructibleC2Ev(ptr noundef nonnull align 8 dereferenceable(9) %this) unnamed_addr #5 comdat align 2 {
entry:
  %this.addr.i = alloca ptr, align 8
  %this.addr = alloca ptr, align 8
  store ptr %this, ptr %this.addr, align 8
  %this1 = load ptr, ptr %this.addr, align 8
  %0 = getelementptr inbounds %"struct.folly::Optional<unsigned long>::StorageTriviallyDestructible", ptr %this1, i32 0, i32 0
  store ptr @_ZN5folly26unsafe_default_initializedE, ptr %this.addr.i, align 8
  store i8 0, ptr %0, align 8
  %hasValue = getelementptr inbounds %"struct.folly::Optional<unsigned long>::StorageTriviallyDestructible", ptr %this1, i32 0, i32 1
  store i8 0, ptr %hasValue, align 8
  ret void
}

; Function Attrs: mustprogress nounwind uwtable
define linkonce_odr void @_ZN5folly8OptionalImEC2ERKS1_(ptr noundef nonnull align 8 dereferenceable(16) %this, ptr noundef nonnull align 8 dereferenceable(16) %src) unnamed_addr #5 comdat align 2 personality ptr @__gxx_personality_v0 {
entry:
  %this.addr = alloca ptr, align 8
  %src.addr = alloca ptr, align 8
  store ptr %this, ptr %this.addr, align 8
  store ptr %src, ptr %src.addr, align 8
  %this1 = load ptr, ptr %this.addr, align 8
  %storage_ = getelementptr inbounds %"class.folly::Optional.70", ptr %this1, i32 0, i32 0
  invoke void @_ZN5folly8OptionalImE28StorageTriviallyDestructibleC2Ev(ptr noundef nonnull align 8 dereferenceable(9) %storage_)
          to label %invoke.cont unwind label %terminate.lpad

invoke.cont:                                      ; preds = %entry
  %0 = load ptr, ptr %src.addr, align 8
  %call = call noundef zeroext i1 @_ZNK5folly8OptionalImE8hasValueEv(ptr noundef nonnull align 8 dereferenceable(16) %0) #3
  br i1 %call, label %if.then, label %if.end

if.then:                                          ; preds = %invoke.cont
  %1 = load ptr, ptr %src.addr, align 8
  %call3 = invoke noundef nonnull align 8 dereferenceable(8) ptr @_ZNKR5folly8OptionalImE5valueEv(ptr noundef nonnull align 8 dereferenceable(16) %1)
          to label %invoke.cont2 unwind label %terminate.lpad

invoke.cont2:                                     ; preds = %if.then
  invoke void @_ZN5folly8OptionalImE9constructIJRKmEEEvDpOT_(ptr noundef nonnull align 8 dereferenceable(16) %this1, ptr noundef nonnull align 8 dereferenceable(8) %call3)
          to label %invoke.cont4 unwind label %terminate.lpad

invoke.cont4:                                     ; preds = %invoke.cont2
  br label %if.end

if.end:                                           ; preds = %invoke.cont4, %invoke.cont
  ret void

terminate.lpad:                                   ; preds = %invoke.cont2, %if.then, %entry
  %2 = landingpad { ptr, i32 }
          catch ptr null
  %3 = extractvalue { ptr, i32 } %2, 0
  call void @__clang_call_terminate(ptr %3) #14
  unreachable
}

; Function Attrs: mustprogress uwtable
define noundef i64 @_ZN8proxygen26PassThroughHTTPCodecFilter19generatePingRequestERN5folly10IOBufQueueENS1_8OptionalImEE(ptr noundef nonnull align 8 dereferenceable(72) %this, ptr noundef nonnull align 8 dereferenceable(72) %writeBuf, ptr noundef %data) unnamed_addr #4 align 2 {
entry:
  %this.addr = alloca ptr, align 8
  %writeBuf.addr = alloca ptr, align 8
  %data.indirect_addr = alloca ptr, align 8
  %agg.tmp = alloca %"class.folly::Optional.70", align 8
  store ptr %this, ptr %this.addr, align 8
  store ptr %writeBuf, ptr %writeBuf.addr, align 8
  store ptr %data, ptr %data.indirect_addr, align 8
  %this1 = load ptr, ptr %this.addr, align 8
  %call_ = getelementptr inbounds %"class.proxygen::GenericFilter", ptr %this1, i32 0, i32 4
  %0 = load ptr, ptr %call_, align 8
  %1 = load ptr, ptr %writeBuf.addr, align 8
  call void @_ZN5folly8OptionalImEC2ERKS1_(ptr noundef nonnull align 8 dereferenceable(16) %agg.tmp, ptr noundef nonnull align 8 dereferenceable(16) %data) #3
  %vtable = load ptr, ptr %0, align 8
  %vfn = getelementptr inbounds ptr, ptr %vtable, i64 35
  %2 = load ptr, ptr %vfn, align 8
  %call = call noundef i64 %2(ptr noundef nonnull align 8 dereferenceable(8) %0, ptr noundef nonnull align 8 dereferenceable(72) %1, ptr noundef %agg.tmp)
  ret i64 %call
}